; Function Attrs: null_pointer_is_valid sspstrong uwtable
define hidden ptr @extcap_get_if_configuration_values(ptr noundef %0, ptr noundef %1, ptr noundef %2) local_unnamed_addr #0 {
  %4 = alloca ptr, align 8
  call void @llvm.lifetime.start.p0(i64 8, ptr nonnull %4) #9
  store ptr null, ptr %4, align 8
  tail call fastcc void @extcap_ensure_all_interfaces_loaded()
  %5 = icmp ne ptr %0, null
  %6 = load ptr, ptr @_tool_for_ifname, align 8
  %7 = icmp ne ptr %6, null
  %or.cond.i = select i1 %5, i1 %7, i1 false
  %8 = load ptr, ptr @_loaded_interfaces, align 8
  %9 = icmp ne ptr %8, null
  %or.cond3.i = select i1 %or.cond.i, i1 %9, i1 false
  br i1 %or.cond3.i, label %10, label %extcap_find_interface_for_ifname.exit.thread

10:                                               ; preds = %3
  %11 = tail call ptr @g_hash_table_lookup(ptr noundef nonnull %6, ptr noundef nonnull %0)
  %.not.i = icmp eq ptr %11, null
  br i1 %.not.i, label %extcap_find_interface_for_ifname.exit.thread, label %12

12:                                               ; preds = %10
  %13 = load ptr, ptr @_loaded_interfaces, align 8
  %14 = tail call ptr @g_hash_table_lookup(ptr noundef %13, ptr noundef nonnull %11)
  %.not34.i = icmp eq ptr %14, null
  br i1 %.not34.i, label %extcap_find_interface_for_ifname.exit.thread, label %15

15:                                               ; preds = %12
  %16 = getelementptr inbounds nuw i8, ptr %14, i64 32
  %.02343.i = load ptr, ptr %16, align 8
  %.not3544.i = icmp eq ptr %.02343.i, null
  br i1 %.not3544.i, label %extcap_find_interface_for_ifname.exit.thread, label %.lr.ph.i

17:                                               ; preds = %20
  %18 = getelementptr inbounds nuw i8, ptr %.02345.i, i64 8
  %.023.i = load ptr, ptr %18, align 8
  %.not35.i = icmp eq ptr %.023.i, null
  br i1 %.not35.i, label %extcap_find_interface_for_ifname.exit.thread, label %.lr.ph.i

.lr.ph.i:                                         ; preds = %15, %17
  %.02345.i = phi ptr [ %.023.i, %17 ], [ %.02343.i, %15 ]
  %19 = load ptr, ptr %.02345.i, align 8
  %.not36.not.i = icmp eq ptr %19, null
  br i1 %.not36.not.i, label %extcap_find_interface_for_ifname.exit.thread, label %20

20:                                               ; preds = %.lr.ph.i
  %21 = load ptr, ptr %19, align 8
  %22 = tail call i32 @g_strcmp0(ptr noundef %21, ptr noundef nonnull %0)
  %23 = icmp eq i32 %22, 0
  br i1 %23, label %extcap_find_interface_for_ifname.exit, label %17

extcap_find_interface_for_ifname.exit:            ; preds = %20
  %24 = tail call noalias ptr @g_strdup(ptr noundef nonnull @.str.9)
  %25 = tail call ptr @g_list_append(ptr noundef null, ptr noundef %24)
  %26 = tail call noalias ptr @g_strdup(ptr noundef nonnull @.str.2)
  %27 = tail call ptr @g_list_append(ptr noundef %25, ptr noundef %26)
  %28 = tail call noalias ptr @g_strdup(ptr noundef nonnull %0)
  %29 = tail call ptr @g_list_append(ptr noundef %27, ptr noundef %28)
  %30 = tail call noalias ptr @g_strdup(ptr noundef nonnull @.str.10)
  %31 = tail call ptr @g_list_append(ptr noundef %29, ptr noundef %30)
  %32 = tail call noalias ptr @g_strdup(ptr noundef %1)
  %33 = tail call ptr @g_list_append(ptr noundef %31, ptr noundef %32)
  %.not28 = icmp eq ptr %2, null
  br i1 %.not28, label %45, label %34

34:                                               ; preds = %extcap_find_interface_for_ifname.exit
  %35 = tail call ptr @g_hash_table_get_keys(ptr noundef nonnull %2)
  %36 = tail call ptr @g_list_first(ptr noundef %35)
  %.not2933 = icmp eq ptr %36, null
  br i1 %.not2933, label %._crit_edge, label %.lr.ph

.lr.ph:                                           ; preds = %34, %.lr.ph
  %.135 = phi ptr [ %42, %.lr.ph ], [ %33, %34 ]
  %.02534 = phi ptr [ %44, %.lr.ph ], [ %36, %34 ]
  %37 = load ptr, ptr %.02534, align 8
  %38 = tail call noalias ptr @g_strdup(ptr noundef %37)
  %39 = tail call ptr @g_list_append(ptr noundef %.135, ptr noundef %38)
  %40 = tail call ptr @g_hash_table_lookup(ptr noundef nonnull %2, ptr noundef %37)
  %41 = tail call noalias ptr @g_strdup(ptr noundef %40)
  %42 = tail call ptr @g_list_append(ptr noundef %39, ptr noundef %41)
  %43 = getelementptr inbounds nuw i8, ptr %.02534, i64 8
  %44 = load ptr, ptr %43, align 8
  %.not29 = icmp eq ptr %44, null
  br i1 %.not29, label %._crit_edge, label %.lr.ph, !llvm.loop !27

._crit_edge:                                      ; preds = %.lr.ph, %34
  %.1.lcssa = phi ptr [ %33, %34 ], [ %42, %.lr.ph ]
  tail call void @g_list_free(ptr noundef %35)
  br label %45

45:                                               ; preds = %._crit_edge, %extcap_find_interface_for_ifname.exit
  %.0 = phi ptr [ %.1.lcssa, %._crit_edge ], [ %33, %extcap_find_interface_for_ifname.exit ]
  call fastcc void @extcap_run_one(ptr noundef %19, ptr noundef %.0, ptr noundef nonnull @cb_reload_preference, ptr noundef nonnull %4, ptr noundef null)
  call void @g_list_free_full(ptr noundef %.0, ptr noundef nonnull @g_free)
  %.pre = load ptr, ptr %4, align 8
  br label %extcap_find_interface_for_ifname.exit.thread

extcap_find_interface_for_ifname.exit.thread:     ; preds = %17, %.lr.ph.i, %15, %12, %10, %3, %45
  %46 = phi ptr [ null, %15 ], [ null, %12 ], [ null, %10 ], [ null, %3 ], [ %.pre, %45 ], [ null, %.lr.ph.i ], [ null, %17 ]
  call void @llvm.lifetime.end.p0(i64 8, ptr nonnull %4) #9
  ret ptr %46
}